target datalayout = "e-m:e-p270:32:32-p271:32:32-p272:64:64-i64:64-i128:128-f80:128-n8:16:32:64-S128"
target triple = "x86_64-pc-linux-gnu"

%struct._zend_executor_globals = type { %struct._zval_struct, %struct._zval_struct, [32 x ptr], ptr, ptr, %struct._zend_array, %struct._zend_array, ptr, i32, i8, %struct._zval_struct, i32, ptr, ptr, ptr, ptr, ptr, ptr, i64, ptr, ptr, i32, ptr, i32, i64, i32, i32, i32, i8, i8, %struct.zend_atomic_bool_s, %struct.zend_atomic_bool_s, ptr, i64, ptr, ptr, %struct._zend_array, %struct._zend_array, i32, i8, %struct._zval_struct, %struct._zval_struct, %struct._zend_stack, %struct._zend_stack, %struct._zend_stack, ptr, i32, i32, i64, ptr, ptr, ptr, %struct._zend_objects_store, %struct._zend_lazy_objects_store, ptr, ptr, ptr, [3 x %struct._zend_op], ptr, i8, i8, i64, i32, i32, ptr, [16 x %struct._HashTableIterator], ptr, %union._zend_function, %struct._zend_op, %struct._zend_array, i64, %struct.zend_get_gc_buffer, ptr, ptr, ptr, i64, i8, i32, ptr, ptr, i64, %struct._zend_call_stack, i64, i64, %struct._zend_strtod_state, [6 x ptr] }
%struct.zend_atomic_bool_s = type { i8 }
%struct._zval_struct = type { %union._zend_value, %union.anon.9, %union.anon.12 }
%union._zend_value = type { i64 }
%union.anon.9 = type { i32 }
%union.anon.12 = type { i32 }
%struct._zend_stack = type { i32, i32, i32, ptr }
%struct._zend_objects_store = type { ptr, i32, i32, i32 }
%struct._zend_lazy_objects_store = type { %struct._zend_array }
%struct._HashTableIterator = type { ptr, i32, i32 }
%union._zend_function = type { %struct._zend_op_array }
%struct._zend_op_array = type { i8, [3 x i8], i32, ptr, ptr, ptr, i32, i32, ptr, ptr, ptr, ptr, i32, ptr, i32, i32, i32, ptr, ptr, ptr, ptr, ptr, i32, i32, ptr, ptr, ptr, i32, i32, i32, i32, ptr, ptr, [6 x ptr] }
%struct._zend_op = type { ptr, %union._znode_op, %union._znode_op, %union._znode_op, i32, i32, i8, i8, i8, i8 }
%union._znode_op = type { i32 }
%struct._zend_array = type { %struct._zend_refcounted_h, %union.anon.1, i32, %union.anon.2, i32, i32, i32, i32, i64, ptr }
%struct._zend_refcounted_h = type { i32, %union.anon.0 }
%union.anon.0 = type { i32 }
%union.anon.1 = type { i32 }
%union.anon.2 = type { ptr }
%struct.zend_get_gc_buffer = type { ptr, ptr, ptr }
%struct._zend_call_stack = type { ptr, i64 }
%struct._zend_strtod_state = type { [8 x ptr], ptr, ptr }
%struct.reflection_object = type { %struct._zval_struct, ptr, ptr, i32, %struct._zend_object }
%struct._zend_object = type { %struct._zend_refcounted_h, i32, i32, ptr, ptr, ptr, [1 x %struct._zval_struct] }
%struct._zend_string = type { %struct._zend_refcounted_h, i64, i64, [1 x i8] }
%struct._zend_execute_data = type { ptr, ptr, ptr, ptr, %struct._zval_struct, ptr, ptr, ptr, ptr }
%struct._attribute_reference = type { ptr, ptr, ptr, ptr, i32 }
%struct._zend_attribute = type { ptr, ptr, i32, i32, i32, i32, [1 x %struct.zend_attribute_arg] }
%struct.zend_attribute_arg = type { ptr, %struct._zval_struct }

@reflection_exception_ptr = dso_local global ptr null, align 8
@executor_globals = external global %struct._zend_executor_globals, align 8
@.str.10 = private unnamed_addr constant [57 x i8] c"Internal error: Failed to retrieve the reflection object\00", align 1

; Function Attrs: alwaysinline nounwind uwtable
define internal i32 @zend_gc_addref(ptr noundef %0) #4 {
  %2 = alloca ptr, align 8
  store ptr %0, ptr %2, align 8, !tbaa !44
  br label %3

3:                                                ; preds = %1
  br label %4

4:                                                ; preds = %3
  %5 = load ptr, ptr %2, align 8, !tbaa !44
  %6 = getelementptr inbounds nuw %struct._zend_refcounted_h, ptr %5, i32 0, i32 0
  %7 = load i32, ptr %6, align 4, !tbaa !46
  %8 = add i32 %7, 1
  store i32 %8, ptr %6, align 4, !tbaa !46
  ret i32 %8
}

; Function Attrs: alwaysinline nounwind uwtable
define internal i32 @zval_gc_flags(i32 noundef %0) #4 {
  %2 = alloca i32, align 4
  store i32 %0, ptr %2, align 4, !tbaa !43
  %3 = load i32, ptr %2, align 4, !tbaa !43
  %4 = lshr i32 %3, 0
  %5 = and i32 %4, 1008
  ret i32 %5
}

; Function Attrs: inlinehint nounwind uwtable
define internal ptr @reflection_object_from_obj(ptr noundef %0) #3 {
  %2 = alloca ptr, align 8
  store ptr %0, ptr %2, align 8, !tbaa !39
  %3 = load ptr, ptr %2, align 8, !tbaa !39
  %4 = getelementptr inbounds i8, ptr %3, i64 -40
  ret ptr %4
}

; Function Attrs: nounwind uwtable
define hidden void @zim_ReflectionAttribute_getName(ptr noundef %0, ptr noundef %1) #0 {
  %3 = alloca ptr, align 8
  %4 = alloca ptr, align 8
  %5 = alloca ptr, align 8
  %6 = alloca ptr, align 8
  %7 = alloca i32, align 4
  %8 = alloca ptr, align 8
  %9 = alloca ptr, align 8
  store ptr %0, ptr %3, align 8, !tbaa !47
  store ptr %1, ptr %4, align 8, !tbaa !9
  call void @llvm.lifetime.start.p0(i64 8, ptr %5) #14
  call void @llvm.lifetime.start.p0(i64 8, ptr %6) #14
  br label %10

10:                                               ; preds = %2
  %11 = load ptr, ptr %3, align 8, !tbaa !47
  %12 = getelementptr inbounds nuw %struct._zend_execute_data, ptr %11, i32 0, i32 4
  %13 = getelementptr inbounds nuw %struct._zval_struct, ptr %12, i32 0, i32 2
  %14 = load i32, ptr %13, align 4, !tbaa !29
  %15 = icmp ne i32 %14, 0
  %16 = xor i1 %15, true
  %17 = xor i1 %16, true
  %18 = zext i1 %17 to i32
  %19 = sext i32 %18 to i64
  %20 = call i64 @llvm.expect.i64(i64 %19, i64 0)
  %21 = icmp ne i64 %20, 0
  br i1 %21, label %22, label %23

22:                                               ; preds = %10
  call void @zend_wrong_parameters_none_error()
  store i32 1, ptr %7, align 4
  br label %98

23:                                               ; preds = %10
  br label %24

24:                                               ; preds = %23
  br label %25

25:                                               ; preds = %24
  br label %26

26:                                               ; preds = %25
  br label %27

27:                                               ; preds = %26
  %28 = load ptr, ptr %3, align 8, !tbaa !47
  %29 = getelementptr inbounds nuw %struct._zend_execute_data, ptr %28, i32 0, i32 4
  %30 = getelementptr inbounds nuw %struct._zval_struct, ptr %29, i32 0, i32 0
  %31 = load ptr, ptr %30, align 8, !tbaa !29
  %32 = call ptr @reflection_object_from_obj(ptr noundef %31)
  store ptr %32, ptr %5, align 8, !tbaa !30
  %33 = load ptr, ptr %5, align 8, !tbaa !30
  %34 = getelementptr inbounds nuw %struct.reflection_object, ptr %33, i32 0, i32 1
  %35 = load ptr, ptr %34, align 8, !tbaa !31
  %36 = icmp eq ptr %35, null
  br i1 %36, label %37, label %58

37:                                               ; preds = %27
  %38 = load ptr, ptr getelementptr inbounds nuw (%struct._zend_executor_globals, ptr @executor_globals, i32 0, i32 54), align 8, !tbaa !49
  %39 = icmp ne ptr %38, null
  br i1 %39, label %40, label %52

40:                                               ; preds = %37
  %41 = load ptr, ptr getelementptr inbounds nuw (%struct._zend_executor_globals, ptr @executor_globals, i32 0, i32 54), align 8, !tbaa !49
  %42 = getelementptr inbounds nuw %struct._zend_object, ptr %41, i32 0, i32 3
  %43 = load ptr, ptr %42, align 8, !tbaa !41
  %44 = load ptr, ptr @reflection_exception_ptr, align 8, !tbaa !4
  %45 = icmp eq ptr %43, %44
  br i1 %45, label %46, label %52

46:                                               ; preds = %40
  br label %47

47:                                               ; preds = %46
  %48 = load ptr, ptr getelementptr inbounds nuw (%struct._zend_executor_globals, ptr @executor_globals, i32 0, i32 54), align 8, !tbaa !49
  %49 = icmp ne ptr %48, null
  call void @llvm.assume(i1 %49)
  store i32 1, ptr %7, align 4
  br label %98

50:                                               ; No predecessors!
  br label %51

51:                                               ; preds = %50
  br label %52

52:                                               ; preds = %51, %40, %37
  call void (ptr, ptr, ...) @zend_throw_error(ptr noundef null, ptr noundef @.str.10)
  br label %53

53:                                               ; preds = %52
  %54 = load ptr, ptr getelementptr inbounds nuw (%struct._zend_executor_globals, ptr @executor_globals, i32 0, i32 54), align 8, !tbaa !49
  %55 = icmp ne ptr %54, null
  call void @llvm.assume(i1 %55)
  store i32 1, ptr %7, align 4
  br label %98

56:                                               ; No predecessors!
  br label %57

57:                                               ; preds = %56
  br label %58

58:                                               ; preds = %57, %27
  br label %59

59:                                               ; preds = %58
  br label %60

60:                                               ; preds = %59
  %61 = load ptr, ptr %5, align 8, !tbaa !30
  %62 = getelementptr inbounds nuw %struct.reflection_object, ptr %61, i32 0, i32 1
  %63 = load ptr, ptr %62, align 8, !tbaa !31
  store ptr %63, ptr %6, align 8, !tbaa !305
  br label %64

64:                                               ; preds = %60
  br label %65

65:                                               ; preds = %64
  br label %66

66:                                               ; preds = %65
  br label %67

67:                                               ; preds = %66
  call void @llvm.lifetime.start.p0(i64 8, ptr %8) #14
  %68 = load ptr, ptr %4, align 8, !tbaa !9
  store ptr %68, ptr %8, align 8, !tbaa !9
  call void @llvm.lifetime.start.p0(i64 8, ptr %9) #14
  %69 = load ptr, ptr %6, align 8, !tbaa !305
  %70 = getelementptr inbounds nuw %struct._attribute_reference, ptr %69, i32 0, i32 1
  %71 = load ptr, ptr %70, align 8, !tbaa !307
  %72 = getelementptr inbounds nuw %struct._zend_attribute, ptr %71, i32 0, i32 0
  %73 = load ptr, ptr %72, align 8, !tbaa !310
  store ptr %73, ptr %9, align 8, !tbaa !38
  %74 = load ptr, ptr %9, align 8, !tbaa !38
  %75 = load ptr, ptr %8, align 8, !tbaa !9
  %76 = getelementptr inbounds nuw %struct._zval_struct, ptr %75, i32 0, i32 0
  store ptr %74, ptr %76, align 8, !tbaa !29
  %77 = load ptr, ptr %9, align 8, !tbaa !38
  %78 = getelementptr inbounds nuw %struct._zend_string, ptr %77, i32 0, i32 0
  %79 = getelementptr inbounds nuw %struct._zend_refcounted_h, ptr %78, i32 0, i32 1
  %80 = load i32, ptr %79, align 4, !tbaa !29
  %81 = call i32 @zval_gc_flags(i32 noundef %80)
  %82 = and i32 %81, 64
  %83 = icmp ne i32 %82, 0
  br i1 %83, label %84, label %87

84:                                               ; preds = %67
  %85 = load ptr, ptr %8, align 8, !tbaa !9
  %86 = getelementptr inbounds nuw %struct._zval_struct, ptr %85, i32 0, i32 1
  store i32 6, ptr %86, align 8, !tbaa !29
  br label %93

87:                                               ; preds = %67
  %88 = load ptr, ptr %9, align 8, !tbaa !38
  %89 = getelementptr inbounds nuw %struct._zend_string, ptr %88, i32 0, i32 0
  %90 = call i32 @zend_gc_addref(ptr noundef %89)
  %91 = load ptr, ptr %8, align 8, !tbaa !9
  %92 = getelementptr inbounds nuw %struct._zval_struct, ptr %91, i32 0, i32 1
  store i32 262, ptr %92, align 8, !tbaa !29
  br label %93

93:                                               ; preds = %87, %84
  call void @llvm.lifetime.end.p0(i64 8, ptr %9) #14
  call void @llvm.lifetime.end.p0(i64 8, ptr %8) #14
  br label %94

94:                                               ; preds = %93
  br label %95

95:                                               ; preds = %94
  store i32 1, ptr %7, align 4
  br label %98

96:                                               ; No predecessors!
  br label %97

97:                                               ; preds = %96
  store i32 0, ptr %7, align 4
  br label %98

98:                                               ; preds = %97, %95, %53, %47, %22
  call void @llvm.lifetime.end.p0(i64 8, ptr %6) #14
  call void @llvm.lifetime.end.p0(i64 8, ptr %5) #14
  %99 = load i32, ptr %7, align 4
  switch i32 %99, label %101 [
    i32 0, label %100
    i32 1, label %100
  ]

100:                                              ; preds = %98, %98
  ret void

101:                                              ; preds = %98
  unreachable
}